; ModuleID = 'bench/curl/original/fileinfo.ll'
source_filename = "bench/curl/original/fileinfo.ll"
target datalayout = "e-m:e-p270:32:32-p271:32:32-p272:64:64-i64:64-i128:128-f80:128-n8:16:32:64-S128"
target triple = "x86_64-pc-linux-gnu"

@Curl_ccalloc = external local_unnamed_addr global ptr, align 8
@Curl_cfree = external local_unnamed_addr global ptr, align 8

; Function Attrs: nounwind uwtable
define hidden ptr @Curl_fileinfo_alloc() local_unnamed_addr #0 {
  %1 = load ptr, ptr @Curl_ccalloc, align 8, !tbaa !3
  %2 = tail call ptr %1(i64 noundef 1, i64 noundef 192) #2
  ret ptr %2
}

; Function Attrs: nounwind uwtable
define hidden void @Curl_fileinfo_cleanup(ptr noundef %0) local_unnamed_addr #0 {
  %.not = icmp eq ptr %0, null
  br i1 %.not, label %5, label %2

2:                                                ; preds = %1
  %3 = getelementptr inbounds nuw i8, ptr %0, i64 160
  tail call void @Curl_dyn_free(ptr noundef nonnull %3) #2
  %4 = load ptr, ptr @Curl_cfree, align 8, !tbaa !3
  tail call void %4(ptr noundef nonnull %0) #2
  br label %5

5:                                                ; preds = %1, %2
  ret void
}

declare void @Curl_dyn_free(ptr noundef) local_unnamed_addr #1


!llvm.module.flags = !{!0, !1, !2}

!0 = !{i32 1, !"wchar_size", i32 4}
!1 = !{i32 8, !"PIC Level", i32 2}
!2 = !{i32 7, !"uwtable", i32 2}
!3 = !{!4, !4, i64 0}
!4 = !{!"any pointer", !5, i64 0}
!5 = !{!"omnipotent char", !6, i64 0}
!6 = !{!"Simple C/C++ TBAA"}
